; Function Attrs: inlinehint mustprogress nofree norecurse nosync nounwind willreturn memory(none) uwtable
define internal fastcc noundef zeroext i1 @_ZN24__llvm_libc_common_utils8internalL7isalnumEi(i32 noundef range(i32 -128, 128) %0) unnamed_addr #9 {
  switch i32 %0, label %2 [
    i32 97, label %3
    i32 98, label %3
    i32 99, label %3
    i32 100, label %3
    i32 101, label %3
    i32 102, label %3
    i32 103, label %3
    i32 104, label %3
    i32 105, label %3
    i32 106, label %3
    i32 107, label %3
    i32 108, label %3
    i32 109, label %3
    i32 110, label %3
    i32 111, label %3
    i32 112, label %3
    i32 113, label %3
    i32 114, label %3
    i32 115, label %3
    i32 116, label %3
    i32 117, label %3
    i32 118, label %3
    i32 119, label %3
    i32 120, label %3
    i32 121, label %3
    i32 122, label %3
    i32 65, label %3
    i32 66, label %3
    i32 67, label %3
    i32 68, label %3
    i32 69, label %3
    i32 70, label %3
    i32 71, label %3
    i32 72, label %3
    i32 73, label %3
    i32 74, label %3
    i32 75, label %3
    i32 76, label %3
    i32 77, label %3
    i32 78, label %3
    i32 79, label %3
    i32 80, label %3
    i32 81, label %3
    i32 82, label %3
    i32 83, label %3
    i32 84, label %3
    i32 85, label %3
    i32 86, label %3
    i32 87, label %3
    i32 88, label %3
    i32 89, label %3
    i32 90, label %3
    i32 48, label %3
    i32 49, label %3
    i32 50, label %3
    i32 51, label %3
    i32 52, label %3
    i32 53, label %3
    i32 54, label %3
    i32 55, label %3
    i32 56, label %3
    i32 57, label %3
  ]

2:                                                ; preds = %1
  br label %3

3:                                                ; preds = %1, %1, %1, %1, %1, %1, %1, %1, %1, %1, %1, %1, %1, %1, %1, %1, %1, %1, %1, %1, %1, %1, %1, %1, %1, %1, %1, %1, %1, %1, %1, %1, %1, %1, %1, %1, %1, %1, %1, %1, %1, %1, %1, %1, %1, %1, %1, %1, %1, %1, %1, %1, %1, %1, %1, %1, %1, %1, %1, %1, %1, %1, %2
  %.0 = phi i1 [ false, %2 ], [ true, %1 ], [ true, %1 ], [ true, %1 ], [ true, %1 ], [ true, %1 ], [ true, %1 ], [ true, %1 ], [ true, %1 ], [ true, %1 ], [ true, %1 ], [ true, %1 ], [ true, %1 ], [ true, %1 ], [ true, %1 ], [ true, %1 ], [ true, %1 ], [ true, %1 ], [ true, %1 ], [ true, %1 ], [ true, %1 ], [ true, %1 ], [ true, %1 ], [ true, %1 ], [ true, %1 ], [ true, %1 ], [ true, %1 ], [ true, %1 ], [ true, %1 ], [ true, %1 ], [ true, %1 ], [ true, %1 ], [ true, %1 ], [ true, %1 ], [ true, %1 ], [ true, %1 ], [ true, %1 ], [ true, %1 ], [ true, %1 ], [ true, %1 ], [ true, %1 ], [ true, %1 ], [ true, %1 ], [ true, %1 ], [ true, %1 ], [ true, %1 ], [ true, %1 ], [ true, %1 ], [ true, %1 ], [ true, %1 ], [ true, %1 ], [ true, %1 ], [ true, %1 ], [ true, %1 ], [ true, %1 ], [ true, %1 ], [ true, %1 ], [ true, %1 ], [ true, %1 ], [ true, %1 ], [ true, %1 ], [ true, %1 ], [ true, %1 ]
  ret i1 %.0
}